; Function Attrs: mustprogress uwtable
define noundef nonnull align 8 dereferenceable(8) ptr @_ZN8proxygen2hqlsERSoNS0_9FrameTypeE(ptr noundef nonnull returned align 8 dereferenceable(8) %os, i64 noundef %type) local_unnamed_addr #8 {
entry:
  switch i64 %type, label %sw.default.i [
    i64 0, label %_ZN8proxygen2hq18getFrameTypeStringENS0_9FrameTypeE.exit
    i64 1, label %sw.bb1.i
    i64 3, label %sw.bb2.i
    i64 4, label %sw.bb3.i
    i64 5, label %sw.bb4.i
    i64 7, label %sw.bb5.i
    i64 13, label %sw.bb6.i
    i64 984832, label %sw.bb7.i
    i64 63232, label %sw.bb7.i
    i64 984833, label %sw.bb8.i
    i64 63233, label %sw.bb8.i
  ]

sw.bb1.i:                                         ; preds = %entry
  br label %_ZN8proxygen2hq18getFrameTypeStringENS0_9FrameTypeE.exit

sw.bb2.i:                                         ; preds = %entry
  br label %_ZN8proxygen2hq18getFrameTypeStringENS0_9FrameTypeE.exit

sw.bb3.i:                                         ; preds = %entry
  br label %_ZN8proxygen2hq18getFrameTypeStringENS0_9FrameTypeE.exit

sw.bb4.i:                                         ; preds = %entry
  br label %_ZN8proxygen2hq18getFrameTypeStringENS0_9FrameTypeE.exit

sw.bb5.i:                                         ; preds = %entry
  br label %_ZN8proxygen2hq18getFrameTypeStringENS0_9FrameTypeE.exit

sw.bb6.i:                                         ; preds = %entry
  br label %_ZN8proxygen2hq18getFrameTypeStringENS0_9FrameTypeE.exit

sw.bb7.i:                                         ; preds = %entry, %entry
  br label %_ZN8proxygen2hq18getFrameTypeStringENS0_9FrameTypeE.exit

sw.bb8.i:                                         ; preds = %entry, %entry
  br label %_ZN8proxygen2hq18getFrameTypeStringENS0_9FrameTypeE.exit

sw.default.i:                                     ; preds = %entry
  %0 = add i64 %type, -4611686018427387904
  %or.cond.i.i = icmp ult i64 %0, -4611686018427387871
  br i1 %or.cond.i.i, label %_ZN8proxygen2hq18getFrameTypeStringENS0_9FrameTypeE.exit, label %_ZN8proxygen2hq10isGreaseIdEm.exit.i

_ZN8proxygen2hq10isGreaseIdEm.exit.i:             ; preds = %sw.default.i
  %sub.i.i = add nsw i64 %type, -33
  %rem.i.i = urem i64 %sub.i.i, 31
  %cmp2.i.i = icmp eq i64 %rem.i.i, 0
  %spec.select.i = select i1 %cmp2.i.i, ptr @.str.14, ptr @.str.15
  br label %_ZN8proxygen2hq18getFrameTypeStringENS0_9FrameTypeE.exit

_ZN8proxygen2hq18getFrameTypeStringENS0_9FrameTypeE.exit: ; preds = %entry, %sw.bb1.i, %sw.bb2.i, %sw.bb3.i, %sw.bb4.i, %sw.bb5.i, %sw.bb6.i, %sw.bb7.i, %sw.bb8.i, %sw.default.i, %_ZN8proxygen2hq10isGreaseIdEm.exit.i
  %retval.0.i = phi ptr [ @.str.13, %sw.bb8.i ], [ @.str.12, %sw.bb7.i ], [ @.str.11, %sw.bb6.i ], [ @.str.10, %sw.bb5.i ], [ @.str.9, %sw.bb4.i ], [ @.str.8, %sw.bb3.i ], [ @.str.7, %sw.bb2.i ], [ @.str.6, %sw.bb1.i ], [ @.str.5, %entry ], [ @.str.15, %sw.default.i ], [ %spec.select.i, %_ZN8proxygen2hq10isGreaseIdEm.exit.i ]
  %call1 = tail call noundef nonnull align 8 dereferenceable(8) ptr @_ZStlsISt11char_traitsIcEERSt13basic_ostreamIcT_ES5_PKc(ptr noundef nonnull align 8 dereferenceable(8) %os, ptr noundef nonnull %retval.0.i)
  ret ptr %os
}